target datalayout = "e-m:e-p270:32:32-p271:32:32-p272:64:64-i64:64-i128:128-f80:128-n8:16:32:64-S128"
target triple = "x86_64-pc-linux-gnu"

; Function Attrs: nounwind uwtable
define i32 @H5P__decode_bool(ptr noundef %0, ptr noundef %1) #0 {
  %3 = alloca ptr, align 8
  %4 = alloca ptr, align 8
  %5 = alloca ptr, align 8
  %6 = alloca ptr, align 8
  %7 = alloca i32, align 4
  store ptr %0, ptr %3, align 8
  store ptr %1, ptr %4, align 8
  %8 = load ptr, ptr %4, align 8
  store ptr %8, ptr %5, align 8
  %9 = load ptr, ptr %3, align 8
  store ptr %9, ptr %6, align 8
  store i32 0, ptr %7, align 4
  %10 = load ptr, ptr %6, align 8
  %11 = load ptr, ptr %10, align 8
  %12 = getelementptr inbounds i8, ptr %11, i32 1
  store ptr %12, ptr %10, align 8
  %13 = load i8, ptr %11, align 1
  %14 = icmp ne i8 %13, 0
  %15 = load ptr, ptr %5, align 8
  %16 = zext i1 %14 to i8
  store i8 %16, ptr %15, align 1
  %17 = load i32, ptr %7, align 4
  ret i32 %17
}