; Function Attrs: mustprogress nofree norecurse nosync nounwind willreturn memory(read, argmem: readwrite, inaccessiblemem: none) uwtable
define noundef i32 @H5P__decode_bool(ptr noundef captures(none) %0, ptr noundef writeonly captures(none) initializes((0, 1)) %1) local_unnamed_addr #5 {
  %3 = load ptr, ptr %0, align 8
  %4 = getelementptr inbounds nuw i8, ptr %3, i64 1
  store ptr %4, ptr %0, align 8
  %5 = load i8, ptr %3, align 1
  %6 = icmp ne i8 %5, 0
  %7 = zext i1 %6 to i8
  store i8 %7, ptr %1, align 1
  ret i32 0
}